target datalayout = "e-m:e-p270:32:32-p271:32:32-p272:64:64-i64:64-i128:128-f80:128-n8:16:32:64-S128"
target triple = "x86_64-pc-linux-gnu"

%struct.__va_list_tag = type { i32, i32, ptr, ptr }

; Function Attrs: nounwind uwtable
define dso_local void @refspec_appendf(ptr noundef %0, ptr noundef %1, ...) #0 {
  %3 = alloca ptr, align 8
  %4 = alloca ptr, align 8
  %5 = alloca [1 x %struct.__va_list_tag], align 16
  %6 = alloca ptr, align 8
  store ptr %0, ptr %3, align 8, !tbaa !43
  store ptr %1, ptr %4, align 8, !tbaa !9
  call void @llvm.lifetime.start.p0(i64 24, ptr %5) #10
  call void @llvm.lifetime.start.p0(i64 8, ptr %6) #10
  %7 = getelementptr inbounds [1 x %struct.__va_list_tag], ptr %5, i64 0, i64 0
  call void @llvm.va_start.p0(ptr %7)
  %8 = load ptr, ptr %4, align 8, !tbaa !9
  %9 = getelementptr inbounds [1 x %struct.__va_list_tag], ptr %5, i64 0, i64 0
  %10 = call ptr @xstrvfmt(ptr noundef %8, ptr noundef %9)
  store ptr %10, ptr %6, align 8, !tbaa !9
  %11 = getelementptr inbounds [1 x %struct.__va_list_tag], ptr %5, i64 0, i64 0
  call void @llvm.va_end.p0(ptr %11)
  %12 = load ptr, ptr %3, align 8, !tbaa !43
  %13 = load ptr, ptr %6, align 8, !tbaa !9
  call void @refspec_append(ptr noundef %12, ptr noundef %13)
  %14 = load ptr, ptr %6, align 8, !tbaa !9
  call void @free(ptr noundef %14) #10
  call void @llvm.lifetime.end.p0(i64 8, ptr %6) #10
  call void @llvm.lifetime.end.p0(i64 24, ptr %5) #10
  ret void
}