; Function Attrs: nounwind uwtable
define dso_local void @refspec_appendf(ptr noundef captures(none) %0, ptr noundef %1, ...) local_unnamed_addr #0 {
  %3 = alloca [1 x %struct.__va_list_tag], align 16
  call void @llvm.lifetime.start.p0(i64 24, ptr nonnull %3) #13
  call void @llvm.va_start.p0(ptr nonnull %3)
  %4 = call ptr @xstrvfmt(ptr noundef %1, ptr noundef nonnull %3) #13
  call void @llvm.va_end.p0(ptr nonnull %3)
  call void @refspec_append(ptr noundef %0, ptr noundef %4)
  call void @free(ptr noundef %4) #13
  call void @llvm.lifetime.end.p0(i64 24, ptr nonnull %3) #13
  ret void
}